; Listing generated by Microsoft (R) Optimizing Compiler Version 19.00.23026.0 

include listing.inc

INCLUDELIB MSVCRT
INCLUDELIB OLDNAMES

CONST	SEGMENT
?qt_meta_stringdata_QtNewWindow@@3Uqt_meta_stringdata_QtNewWindow_t@@B DD 0ffffffffH ; qt_meta_stringdata_QtNewWindow
	DD	0bH
	DD	00H
	ORG $+4
	DQ	00000000000000a8H
	DD	0ffffffffH
	DD	0aH
	DD	00H
	ORG $+4
	DQ	000000000000009cH
	DD	0ffffffffH
	DD	00H
	DD	00H
	ORG $+4
	DQ	000000000000008fH
	DD	0ffffffffH
	DD	05H
	DD	00H
	ORG $+4
	DQ	0000000000000078H
	DD	0ffffffffH
	DD	07H
	DD	00H
	ORG $+4
	DQ	0000000000000066H
	DD	0ffffffffH
	DD	07H
	DD	00H
	ORG $+4
	DQ	0000000000000056H
	DD	0ffffffffH
	DD	0cH
	DD	00H
	ORG $+4
	DQ	0000000000000046H
	DB	'QtNewWindow', 00H, 'saveSignal', 00H, 00H, 'title', 00H, 'c'
	DB	'ontent', 00H, 'remarks', 00H, 'modifySignal', 00H
	ORG $+5
	ORG $+8
?qt_meta_data_QtNewWindow@@3QBIB DD 07H			; qt_meta_data_QtNewWindow
	DD	00H
	DD	00H
	DD	00H
	DD	02H
	DD	0eH
	DD	00H
	DD	00H
	DD	00H
	DD	00H
	DD	00H
	DD	00H
	DD	00H
	DD	02H
	DD	01H
	DD	03H
	DD	018H
	DD	02H
	DD	06H
	DD	06H
	DD	03H
	DD	01fH
	DD	02H
	DD	06H
	DD	02bH
	DD	0aH
	DD	0aH
	DD	0aH
	DD	03H
	DD	04H
	DD	05H
	DD	02bH
	DD	0aH
	DD	0aH
	DD	0aH
	DD	03H
	DD	04H
	DD	05H
	DD	00H
CONST	ENDS
PUBLIC	?metaObject@QtNewWindow@@UEBAPEBUQMetaObject@@XZ ; QtNewWindow::metaObject
PUBLIC	?qt_metacast@QtNewWindow@@UEAAPEAXPEBD@Z	; QtNewWindow::qt_metacast
PUBLIC	?qt_metacall@QtNewWindow@@UEAAHW4Call@QMetaObject@@HPEAPEAX@Z ; QtNewWindow::qt_metacall
PUBLIC	?qt_static_metacall@QtNewWindow@@CAXPEAVQObject@@W4Call@QMetaObject@@HPEAPEAX@Z ; QtNewWindow::qt_static_metacall
PUBLIC	?saveSignal@QtNewWindow@@QEAAXVQString@@00@Z	; QtNewWindow::saveSignal
PUBLIC	?modifySignal@QtNewWindow@@QEAAXVQString@@00@Z	; QtNewWindow::modifySignal
PUBLIC	?staticMetaObject@QtNewWindow@@2UQMetaObject@@B	; QtNewWindow::staticMetaObject
EXTRN	__imp_??0QString@@QEAA@AEBV0@@Z:PROC
EXTRN	__imp_??1QString@@QEAA@XZ:PROC
EXTRN	__imp_?activate@QMetaObject@@SAXPEAVQObject@@PEBU1@HPEAPEAX@Z:PROC
EXTRN	__imp_?dynamicMetaObject@QObjectData@@QEBAPEAUQMetaObject@@XZ:PROC
EXTRN	__imp_?qt_metacast@QWidget@@UEAAPEAXPEBD@Z:PROC
EXTRN	__imp_?qt_metacall@QWidget@@UEAAHW4Call@QMetaObject@@HPEAPEAX@Z:PROC
EXTRN	__GSHandlerCheck_EH:PROC
EXTRN	__security_check_cookie:PROC
EXTRN	__imp_?staticMetaObject@QWidget@@2UQMetaObject@@B:BYTE
EXTRN	__security_cookie:QWORD
;	COMDAT pdata
pdata	SEGMENT
$pdata$?qt_metacall@QtNewWindow@@UEAAHW4Call@QMetaObject@@HPEAPEAX@Z DD imagerel $LN10
	DD	imagerel $LN10+112
	DD	imagerel $unwind$?qt_metacall@QtNewWindow@@UEAAHW4Call@QMetaObject@@HPEAPEAX@Z
pdata	ENDS
;	COMDAT pdata
pdata	SEGMENT
$pdata$?qt_static_metacall@QtNewWindow@@CAXPEAVQObject@@W4Call@QMetaObject@@HPEAPEAX@Z DD imagerel $LN30
	DD	imagerel $LN30+24
	DD	imagerel $unwind$?qt_static_metacall@QtNewWindow@@CAXPEAVQObject@@W4Call@QMetaObject@@HPEAPEAX@Z
pdata	ENDS
;	COMDAT pdata
pdata	SEGMENT
$pdata$1$?qt_static_metacall@QtNewWindow@@CAXPEAVQObject@@W4Call@QMetaObject@@HPEAPEAX@Z DD imagerel $LN30+24
	DD	imagerel $LN30+123
	DD	imagerel $chain$1$?qt_static_metacall@QtNewWindow@@CAXPEAVQObject@@W4Call@QMetaObject@@HPEAPEAX@Z
pdata	ENDS
;	COMDAT pdata
pdata	SEGMENT
$pdata$2$?qt_static_metacall@QtNewWindow@@CAXPEAVQObject@@W4Call@QMetaObject@@HPEAPEAX@Z DD imagerel $LN30+123
	DD	imagerel $LN30+134
	DD	imagerel $chain$2$?qt_static_metacall@QtNewWindow@@CAXPEAVQObject@@W4Call@QMetaObject@@HPEAPEAX@Z
pdata	ENDS
;	COMDAT pdata
pdata	SEGMENT
$pdata$3$?qt_static_metacall@QtNewWindow@@CAXPEAVQObject@@W4Call@QMetaObject@@HPEAPEAX@Z DD imagerel $LN30+134
	DD	imagerel $LN30+204
	DD	imagerel $chain$3$?qt_static_metacall@QtNewWindow@@CAXPEAVQObject@@W4Call@QMetaObject@@HPEAPEAX@Z
pdata	ENDS
;	COMDAT pdata
pdata	SEGMENT
$pdata$4$?qt_static_metacall@QtNewWindow@@CAXPEAVQObject@@W4Call@QMetaObject@@HPEAPEAX@Z DD imagerel $LN30+204
	DD	imagerel $LN30+307
	DD	imagerel $chain$4$?qt_static_metacall@QtNewWindow@@CAXPEAVQObject@@W4Call@QMetaObject@@HPEAPEAX@Z
pdata	ENDS
;	COMDAT pdata
pdata	SEGMENT
$pdata$?saveSignal@QtNewWindow@@QEAAXVQString@@00@Z DD imagerel $LN6
	DD	imagerel $LN6+145
	DD	imagerel $unwind$?saveSignal@QtNewWindow@@QEAAXVQString@@00@Z
pdata	ENDS
;	COMDAT pdata
pdata	SEGMENT
$pdata$?modifySignal@QtNewWindow@@QEAAXVQString@@00@Z DD imagerel $LN6
	DD	imagerel $LN6+148
	DD	imagerel $unwind$?modifySignal@QtNewWindow@@QEAAXVQString@@00@Z
pdata	ENDS
CRT$XCU	SEGMENT
??staticMetaObject$initializer$@QtNewWindow@@2P6AXXZEA@@3P6AXXZEA DQ FLAT:??__E?staticMetaObject@QtNewWindow@@2UQMetaObject@@B@@YAXXZ ; ??staticMetaObject$initializer$@QtNewWindow@@2P6AXXZEA@@3P6AXXZEA
CRT$XCU	ENDS
_DATA	SEGMENT
?staticMetaObject@QtNewWindow@@2UQMetaObject@@B DB 8 DUP(00H) ; QtNewWindow::staticMetaObject
	DQ	FLAT:?qt_meta_stringdata_QtNewWindow@@3Uqt_meta_stringdata_QtNewWindow_t@@B
	DQ	FLAT:?qt_meta_data_QtNewWindow@@3QBIB
	DQ	FLAT:?qt_static_metacall@QtNewWindow@@CAXPEAVQObject@@W4Call@QMetaObject@@HPEAPEAX@Z
	DQ	0000000000000000H
	DQ	0000000000000000H
_DATA	ENDS
;	COMDAT xdata
xdata	SEGMENT
$ip2state$?modifySignal@QtNewWindow@@QEAAXVQString@@00@Z DD imagerel ?modifySignal@QtNewWindow@@QEAAXVQString@@00@Z
	DD	0ffffffffH
	DD	imagerel ?modifySignal@QtNewWindow@@QEAAXVQString@@00@Z+54
	DD	02H
	DD	imagerel ?modifySignal@QtNewWindow@@QEAAXVQString@@00@Z+98
	DD	01H
	DD	imagerel ?modifySignal@QtNewWindow@@QEAAXVQString@@00@Z+108
	DD	00H
	DD	imagerel ?modifySignal@QtNewWindow@@QEAAXVQString@@00@Z+118
	DD	0ffffffffH
xdata	ENDS
;	COMDAT xdata
xdata	SEGMENT
$stateUnwindMap$?modifySignal@QtNewWindow@@QEAAXVQString@@00@Z DD 0ffffffffH
	DD	imagerel ?dtor$0@?0??modifySignal@QtNewWindow@@QEAAXVQString@@00@Z@4HA
	DD	00H
	DD	imagerel ?dtor$1@?0??modifySignal@QtNewWindow@@QEAAXVQString@@00@Z@4HA
	DD	01H
	DD	imagerel ?dtor$2@?0??modifySignal@QtNewWindow@@QEAAXVQString@@00@Z@4HA
xdata	ENDS
;	COMDAT CONST
CONST	SEGMENT
$cppxdata$?modifySignal@QtNewWindow@@QEAAXVQString@@00@Z DD 019930522H
	DD	03H
	DD	imagerel $stateUnwindMap$?modifySignal@QtNewWindow@@QEAAXVQString@@00@Z
	DD	00H
	DD	00H
	DD	05H
	DD	imagerel $ip2state$?modifySignal@QtNewWindow@@QEAAXVQString@@00@Z
	DD	020H
	DD	00H
	DD	01H
CONST	ENDS
;	COMDAT xdata
xdata	SEGMENT
$unwind$?modifySignal@QtNewWindow@@QEAAXVQString@@00@Z DD 042119H
	DD	07006d20aH
	DD	030046005H
	DD	imagerel __GSHandlerCheck_EH
	DD	imagerel $cppxdata$?modifySignal@QtNewWindow@@QEAAXVQString@@00@Z
	DD	062H
xdata	ENDS
;	COMDAT xdata
xdata	SEGMENT
$ip2state$?saveSignal@QtNewWindow@@QEAAXVQString@@00@Z DD imagerel ?saveSignal@QtNewWindow@@QEAAXVQString@@00@Z
	DD	0ffffffffH
	DD	imagerel ?saveSignal@QtNewWindow@@QEAAXVQString@@00@Z+54
	DD	02H
	DD	imagerel ?saveSignal@QtNewWindow@@QEAAXVQString@@00@Z+95
	DD	01H
	DD	imagerel ?saveSignal@QtNewWindow@@QEAAXVQString@@00@Z+105
	DD	00H
	DD	imagerel ?saveSignal@QtNewWindow@@QEAAXVQString@@00@Z+115
	DD	0ffffffffH
xdata	ENDS
;	COMDAT xdata
xdata	SEGMENT
$stateUnwindMap$?saveSignal@QtNewWindow@@QEAAXVQString@@00@Z DD 0ffffffffH
	DD	imagerel ?dtor$0@?0??saveSignal@QtNewWindow@@QEAAXVQString@@00@Z@4HA
	DD	00H
	DD	imagerel ?dtor$1@?0??saveSignal@QtNewWindow@@QEAAXVQString@@00@Z@4HA
	DD	01H
	DD	imagerel ?dtor$2@?0??saveSignal@QtNewWindow@@QEAAXVQString@@00@Z@4HA
xdata	ENDS
;	COMDAT CONST
CONST	SEGMENT
$cppxdata$?saveSignal@QtNewWindow@@QEAAXVQString@@00@Z DD 019930522H
	DD	03H
	DD	imagerel $stateUnwindMap$?saveSignal@QtNewWindow@@QEAAXVQString@@00@Z
	DD	00H
	DD	00H
	DD	05H
	DD	imagerel $ip2state$?saveSignal@QtNewWindow@@QEAAXVQString@@00@Z
	DD	020H
	DD	00H
	DD	01H
CONST	ENDS
;	COMDAT xdata
xdata	SEGMENT
$unwind$?saveSignal@QtNewWindow@@QEAAXVQString@@00@Z DD 042119H
	DD	07006d20aH
	DD	030046005H
	DD	imagerel __GSHandlerCheck_EH
	DD	imagerel $cppxdata$?saveSignal@QtNewWindow@@QEAAXVQString@@00@Z
	DD	062H
xdata	ENDS
;	COMDAT xdata
xdata	SEGMENT
$chain$4$?qt_static_metacall@QtNewWindow@@CAXPEAVQObject@@W4Call@QMetaObject@@HPEAPEAX@Z DD 021H
	DD	imagerel $LN30
	DD	imagerel $LN30+24
	DD	imagerel $unwind$?qt_static_metacall@QtNewWindow@@CAXPEAVQObject@@W4Call@QMetaObject@@HPEAPEAX@Z
xdata	ENDS
;	COMDAT xdata
xdata	SEGMENT
$chain$3$?qt_static_metacall@QtNewWindow@@CAXPEAVQObject@@W4Call@QMetaObject@@HPEAPEAX@Z DD 040021H
	DD	0b7400H
	DD	0a3400H
	DD	imagerel $LN30
	DD	imagerel $LN30+24
	DD	imagerel $unwind$?qt_static_metacall@QtNewWindow@@CAXPEAVQObject@@W4Call@QMetaObject@@HPEAPEAX@Z
xdata	ENDS
;	COMDAT xdata
xdata	SEGMENT
$chain$2$?qt_static_metacall@QtNewWindow@@CAXPEAVQObject@@W4Call@QMetaObject@@HPEAPEAX@Z DD 021H
	DD	imagerel $LN30
	DD	imagerel $LN30+24
	DD	imagerel $unwind$?qt_static_metacall@QtNewWindow@@CAXPEAVQObject@@W4Call@QMetaObject@@HPEAPEAX@Z
xdata	ENDS
;	COMDAT xdata
xdata	SEGMENT
$chain$1$?qt_static_metacall@QtNewWindow@@CAXPEAVQObject@@W4Call@QMetaObject@@HPEAPEAX@Z DD 040a21H
	DD	0b740aH
	DD	0a3405H
	DD	imagerel $LN30
	DD	imagerel $LN30+24
	DD	imagerel $unwind$?qt_static_metacall@QtNewWindow@@CAXPEAVQObject@@W4Call@QMetaObject@@HPEAPEAX@Z
xdata	ENDS
;	COMDAT xdata
xdata	SEGMENT
$unwind$?qt_static_metacall@QtNewWindow@@CAXPEAVQObject@@W4Call@QMetaObject@@HPEAPEAX@Z DD 040a01H
	DD	0c540aH
	DD	06006720aH
xdata	ENDS
;	COMDAT xdata
xdata	SEGMENT
$unwind$?qt_metacall@QtNewWindow@@UEAAHW4Call@QMetaObject@@HPEAPEAX@Z DD 081401H
	DD	086414H
	DD	075414H
	DD	063414H
	DD	070103214H
xdata	ENDS
; Function compile flags: /Ogtpy
;	COMDAT ??__E?staticMetaObject@QtNewWindow@@2UQMetaObject@@B@@YAXXZ
text$di	SEGMENT
??__E?staticMetaObject@QtNewWindow@@2UQMetaObject@@B@@YAXXZ PROC ; `dynamic initializer for 'QtNewWindow::staticMetaObject'', COMDAT
; File e:\workspace\file_save_haizeiwang10086\qtsearchwindow\qtsearchwindow\generatedfiles\release\moc_qtnewwindow.cpp
; Line 103
	mov	rax, QWORD PTR __imp_?staticMetaObject@QWidget@@2UQMetaObject@@B
	mov	QWORD PTR ?staticMetaObject@QtNewWindow@@2UQMetaObject@@B, rax
; Line 104
	ret	0
??__E?staticMetaObject@QtNewWindow@@2UQMetaObject@@B@@YAXXZ ENDP ; `dynamic initializer for 'QtNewWindow::staticMetaObject''
text$di	ENDS
; Function compile flags: /Ogtpy
;	COMDAT ?modifySignal@QtNewWindow@@QEAAXVQString@@00@Z
_TEXT	SEGMENT
_t1$GSCopy$ = 40
_t2$GSCopy$ = 48
_t3$GSCopy$ = 56
__$ArrayPad$ = 96
this$ = 144
_t1$ = 152
_t2$ = 160
_t3$ = 168
?modifySignal@QtNewWindow@@QEAAXVQString@@00@Z PROC	; QtNewWindow::modifySignal, COMDAT
; File e:\workspace\file_save_haizeiwang10086\qtsearchwindow\qtsearchwindow\generatedfiles\release\moc_qtnewwindow.cpp
; Line 147
$LN6:
	mov	r11, rsp
	push	rbx
	push	rsi
	push	rdi
	sub	rsp, 112				; 00000070H
	mov	QWORD PTR [r11-104], -2
	mov	rax, QWORD PTR __security_cookie
	xor	rax, rsp
	mov	QWORD PTR __$ArrayPad$[rsp], rax
	mov	rsi, r9
	mov	rdi, r8
	mov	rbx, rdx
	mov	QWORD PTR [r11-96], rdx
	mov	QWORD PTR [r11-88], r8
	mov	QWORD PTR [r11-80], r9
; Line 148
	mov	QWORD PTR [r11-72], 0
	mov	QWORD PTR [r11-64], rdx
	mov	QWORD PTR [r11-56], r8
	mov	QWORD PTR [r11-48], r9
; Line 149
	lea	r9, QWORD PTR [r11-72]
	mov	r8d, 1
	lea	rdx, OFFSET FLAT:?staticMetaObject@QtNewWindow@@2UQMetaObject@@B ; QtNewWindow::staticMetaObject
	call	QWORD PTR __imp_?activate@QMetaObject@@SAXPEAVQObject@@PEBU1@HPEAPEAX@Z
	npad	1
; Line 150
	mov	rcx, rbx
	call	QWORD PTR __imp_??1QString@@QEAA@XZ
	npad	1
	mov	rcx, rdi
	call	QWORD PTR __imp_??1QString@@QEAA@XZ
	npad	1
	mov	rcx, rsi
	call	QWORD PTR __imp_??1QString@@QEAA@XZ
	mov	rcx, QWORD PTR __$ArrayPad$[rsp]
	xor	rcx, rsp
	call	__security_check_cookie
	add	rsp, 112				; 00000070H
	pop	rdi
	pop	rsi
	pop	rbx
	ret	0
?modifySignal@QtNewWindow@@QEAAXVQString@@00@Z ENDP	; QtNewWindow::modifySignal
_TEXT	ENDS
; Function compile flags: /Ogtpy
;	COMDAT text$x
text$x	SEGMENT
_t1$GSCopy$ = 40
_t2$GSCopy$ = 48
_t3$GSCopy$ = 56
__$ArrayPad$ = 96
this$ = 144
_t1$ = 152
_t2$ = 160
_t3$ = 168
?dtor$0@?0??modifySignal@QtNewWindow@@QEAAXVQString@@00@Z@4HA PROC ; `QtNewWindow::modifySignal'::`1'::dtor$0
	mov	rcx, QWORD PTR _t3$GSCopy$[rdx]
	rex_jmp	QWORD PTR __imp_??1QString@@QEAA@XZ
?dtor$0@?0??modifySignal@QtNewWindow@@QEAAXVQString@@00@Z@4HA ENDP ; `QtNewWindow::modifySignal'::`1'::dtor$0
text$x	ENDS
; Function compile flags: /Ogtpy
;	COMDAT text$x
text$x	SEGMENT
_t1$GSCopy$ = 40
_t2$GSCopy$ = 48
_t3$GSCopy$ = 56
__$ArrayPad$ = 96
this$ = 144
_t1$ = 152
_t2$ = 160
_t3$ = 168
?dtor$1@?0??modifySignal@QtNewWindow@@QEAAXVQString@@00@Z@4HA PROC ; `QtNewWindow::modifySignal'::`1'::dtor$1
	mov	rcx, QWORD PTR _t2$GSCopy$[rdx]
	rex_jmp	QWORD PTR __imp_??1QString@@QEAA@XZ
?dtor$1@?0??modifySignal@QtNewWindow@@QEAAXVQString@@00@Z@4HA ENDP ; `QtNewWindow::modifySignal'::`1'::dtor$1
text$x	ENDS
; Function compile flags: /Ogtpy
;	COMDAT text$x
text$x	SEGMENT
_t1$GSCopy$ = 40
_t2$GSCopy$ = 48
_t3$GSCopy$ = 56
__$ArrayPad$ = 96
this$ = 144
_t1$ = 152
_t2$ = 160
_t3$ = 168
?dtor$2@?0??modifySignal@QtNewWindow@@QEAAXVQString@@00@Z@4HA PROC ; `QtNewWindow::modifySignal'::`1'::dtor$2
	mov	rcx, QWORD PTR _t1$GSCopy$[rdx]
	rex_jmp	QWORD PTR __imp_??1QString@@QEAA@XZ
?dtor$2@?0??modifySignal@QtNewWindow@@QEAAXVQString@@00@Z@4HA ENDP ; `QtNewWindow::modifySignal'::`1'::dtor$2
text$x	ENDS
; Function compile flags: /Ogtpy
;	COMDAT ?saveSignal@QtNewWindow@@QEAAXVQString@@00@Z
_TEXT	SEGMENT
_t1$GSCopy$ = 40
_t2$GSCopy$ = 48
_t3$GSCopy$ = 56
__$ArrayPad$ = 96
this$ = 144
_t1$ = 152
_t2$ = 160
_t3$ = 168
?saveSignal@QtNewWindow@@QEAAXVQString@@00@Z PROC	; QtNewWindow::saveSignal, COMDAT
; File e:\workspace\file_save_haizeiwang10086\qtsearchwindow\qtsearchwindow\generatedfiles\release\moc_qtnewwindow.cpp
; Line 140
$LN6:
	mov	r11, rsp
	push	rbx
	push	rsi
	push	rdi
	sub	rsp, 112				; 00000070H
	mov	QWORD PTR [r11-104], -2
	mov	rax, QWORD PTR __security_cookie
	xor	rax, rsp
	mov	QWORD PTR __$ArrayPad$[rsp], rax
	mov	rsi, r9
	mov	rdi, r8
	mov	rbx, rdx
	mov	QWORD PTR [r11-96], rdx
	mov	QWORD PTR [r11-88], r8
	mov	QWORD PTR [r11-80], r9
; Line 141
	mov	QWORD PTR [r11-72], 0
	mov	QWORD PTR [r11-64], rdx
	mov	QWORD PTR [r11-56], r8
	mov	QWORD PTR [r11-48], r9
; Line 142
	lea	r9, QWORD PTR [r11-72]
	xor	r8d, r8d
	lea	rdx, OFFSET FLAT:?staticMetaObject@QtNewWindow@@2UQMetaObject@@B ; QtNewWindow::staticMetaObject
	call	QWORD PTR __imp_?activate@QMetaObject@@SAXPEAVQObject@@PEBU1@HPEAPEAX@Z
	npad	1
; Line 143
	mov	rcx, rbx
	call	QWORD PTR __imp_??1QString@@QEAA@XZ
	npad	1
	mov	rcx, rdi
	call	QWORD PTR __imp_??1QString@@QEAA@XZ
	npad	1
	mov	rcx, rsi
	call	QWORD PTR __imp_??1QString@@QEAA@XZ
	mov	rcx, QWORD PTR __$ArrayPad$[rsp]
	xor	rcx, rsp
	call	__security_check_cookie
	add	rsp, 112				; 00000070H
	pop	rdi
	pop	rsi
	pop	rbx
	ret	0
?saveSignal@QtNewWindow@@QEAAXVQString@@00@Z ENDP	; QtNewWindow::saveSignal
_TEXT	ENDS
; Function compile flags: /Ogtpy
;	COMDAT text$x
text$x	SEGMENT
_t1$GSCopy$ = 40
_t2$GSCopy$ = 48
_t3$GSCopy$ = 56
__$ArrayPad$ = 96
this$ = 144
_t1$ = 152
_t2$ = 160
_t3$ = 168
?dtor$0@?0??saveSignal@QtNewWindow@@QEAAXVQString@@00@Z@4HA PROC ; `QtNewWindow::saveSignal'::`1'::dtor$0
	mov	rcx, QWORD PTR _t3$GSCopy$[rdx]
	rex_jmp	QWORD PTR __imp_??1QString@@QEAA@XZ
?dtor$0@?0??saveSignal@QtNewWindow@@QEAAXVQString@@00@Z@4HA ENDP ; `QtNewWindow::saveSignal'::`1'::dtor$0
text$x	ENDS
; Function compile flags: /Ogtpy
;	COMDAT text$x
text$x	SEGMENT
_t1$GSCopy$ = 40
_t2$GSCopy$ = 48
_t3$GSCopy$ = 56
__$ArrayPad$ = 96
this$ = 144
_t1$ = 152
_t2$ = 160
_t3$ = 168
?dtor$1@?0??saveSignal@QtNewWindow@@QEAAXVQString@@00@Z@4HA PROC ; `QtNewWindow::saveSignal'::`1'::dtor$1
	mov	rcx, QWORD PTR _t2$GSCopy$[rdx]
	rex_jmp	QWORD PTR __imp_??1QString@@QEAA@XZ
?dtor$1@?0??saveSignal@QtNewWindow@@QEAAXVQString@@00@Z@4HA ENDP ; `QtNewWindow::saveSignal'::`1'::dtor$1
text$x	ENDS
; Function compile flags: /Ogtpy
;	COMDAT text$x
text$x	SEGMENT
_t1$GSCopy$ = 40
_t2$GSCopy$ = 48
_t3$GSCopy$ = 56
__$ArrayPad$ = 96
this$ = 144
_t1$ = 152
_t2$ = 160
_t3$ = 168
?dtor$2@?0??saveSignal@QtNewWindow@@QEAAXVQString@@00@Z@4HA PROC ; `QtNewWindow::saveSignal'::`1'::dtor$2
	mov	rcx, QWORD PTR _t1$GSCopy$[rdx]
	rex_jmp	QWORD PTR __imp_??1QString@@QEAA@XZ
?dtor$2@?0??saveSignal@QtNewWindow@@QEAAXVQString@@00@Z@4HA ENDP ; `QtNewWindow::saveSignal'::`1'::dtor$2
text$x	ENDS
; Function compile flags: /Ogtpy
;	COMDAT ?qt_static_metacall@QtNewWindow@@CAXPEAVQObject@@W4Call@QMetaObject@@HPEAPEAX@Z
_TEXT	SEGMENT
$T1 = 32
$T2 = 32
$T3 = 40
$T4 = 40
$T5 = 48
$T6 = 48
_o$ = 80
_c$ = 88
_id$ = 96
_a$ = 104
?qt_static_metacall@QtNewWindow@@CAXPEAVQObject@@W4Call@QMetaObject@@HPEAPEAX@Z PROC ; QtNewWindow::qt_static_metacall, COMDAT
; File e:\workspace\file_save_haizeiwang10086\qtsearchwindow\qtsearchwindow\generatedfiles\release\moc_qtnewwindow.cpp
; Line 73
$LN30:
	mov	QWORD PTR [rsp+24], rbp
	push	rsi
	sub	rsp, 64					; 00000040H
	mov	rsi, r9
	mov	rbp, rcx
; Line 74
	test	edx, edx
	jne	$LN4@qt_static_
; Line 77
	mov	QWORD PTR [rsp+80], rbx
	mov	QWORD PTR [rsp+88], rdi
	test	r8d, r8d
	je	SHORT $LN6@qt_static_
	cmp	r8d, 1
	jne	SHORT $LN28@qt_static_
; Line 79
	mov	rdx, QWORD PTR [r9+24]
	lea	rcx, QWORD PTR $T1[rsp]
	call	QWORD PTR __imp_??0QString@@QEAA@AEBV0@@Z
	mov	rdx, QWORD PTR [rsi+16]
	lea	rcx, QWORD PTR $T3[rsp]
	mov	rdi, rax
	call	QWORD PTR __imp_??0QString@@QEAA@AEBV0@@Z
	mov	rdx, QWORD PTR [rsi+8]
	lea	rcx, QWORD PTR $T5[rsp]
	mov	rbx, rax
	call	QWORD PTR __imp_??0QString@@QEAA@AEBV0@@Z
	mov	r9, rdi
	mov	r8, rbx
	mov	rdx, rax
	mov	rcx, rbp
	call	?modifySignal@QtNewWindow@@QEAAXVQString@@00@Z ; QtNewWindow::modifySignal
$LN28@qt_static_:
	mov	rbx, QWORD PTR [rsp+80]
	mov	rdi, QWORD PTR [rsp+88]
$LN11@qt_static_:
; Line 100
	mov	rbp, QWORD PTR [rsp+96]
	add	rsp, 64					; 00000040H
	pop	rsi
	ret	0
$LN6@qt_static_:
; Line 78
	mov	rdx, QWORD PTR [r9+24]
	lea	rcx, QWORD PTR $T6[rsp]
	call	QWORD PTR __imp_??0QString@@QEAA@AEBV0@@Z
	mov	rdx, QWORD PTR [rsi+16]
	lea	rcx, QWORD PTR $T4[rsp]
	mov	rdi, rax
	call	QWORD PTR __imp_??0QString@@QEAA@AEBV0@@Z
	mov	rdx, QWORD PTR [rsi+8]
	lea	rcx, QWORD PTR $T2[rsp]
	mov	rbx, rax
	call	QWORD PTR __imp_??0QString@@QEAA@AEBV0@@Z
	mov	r9, rdi
	mov	r8, rbx
	mov	rdx, rax
	mov	rcx, rbp
	call	?saveSignal@QtNewWindow@@QEAAXVQString@@00@Z ; QtNewWindow::saveSignal
; Line 82
	jmp	SHORT $LN28@qt_static_
$LN4@qt_static_:
	cmp	edx, 10
	jne	SHORT $LN11@qt_static_
; Line 84
	mov	rcx, QWORD PTR [r9+8]
; Line 87
	lea	r8, OFFSET FLAT:?saveSignal@QtNewWindow@@QEAAXVQString@@00@Z ; QtNewWindow::saveSignal
	mov	rdx, QWORD PTR [r9]
	mov	rax, QWORD PTR [rcx]
	cmp	rax, r8
	jne	SHORT $LN10@qt_static_
	test	rax, rax
	je	SHORT $LN25@qt_static_
	cmp	DWORD PTR [rcx+8], 0
	jne	SHORT $LN10@qt_static_
$LN25@qt_static_:
; Line 88
	mov	DWORD PTR [rdx], 0
; Line 100
	mov	rbp, QWORD PTR [rsp+96]
	add	rsp, 64					; 00000040H
	pop	rsi
	ret	0
$LN10@qt_static_:
; Line 94
	lea	r8, OFFSET FLAT:?modifySignal@QtNewWindow@@QEAAXVQString@@00@Z ; QtNewWindow::modifySignal
	cmp	rax, r8
	jne	$LN11@qt_static_
	test	rax, rax
	je	SHORT $LN26@qt_static_
	cmp	DWORD PTR [rcx+8], 0
	jne	$LN11@qt_static_
$LN26@qt_static_:
; Line 95
	mov	DWORD PTR [rdx], 1
; Line 100
	mov	rbp, QWORD PTR [rsp+96]
	add	rsp, 64					; 00000040H
	pop	rsi
	ret	0
?qt_static_metacall@QtNewWindow@@CAXPEAVQObject@@W4Call@QMetaObject@@HPEAPEAX@Z ENDP ; QtNewWindow::qt_static_metacall
_TEXT	ENDS
; Function compile flags: /Ogtpy
;	COMDAT ?qt_metacall@QtNewWindow@@UEAAHW4Call@QMetaObject@@HPEAPEAX@Z
_TEXT	SEGMENT
this$ = 48
_c$ = 56
_id$ = 64
_a$ = 72
?qt_metacall@QtNewWindow@@UEAAHW4Call@QMetaObject@@HPEAPEAX@Z PROC ; QtNewWindow::qt_metacall, COMDAT
; File e:\workspace\file_save_haizeiwang10086\qtsearchwindow\qtsearchwindow\generatedfiles\release\moc_qtnewwindow.cpp
; Line 122
$LN10:
	mov	QWORD PTR [rsp+8], rbx
	mov	QWORD PTR [rsp+16], rbp
	mov	QWORD PTR [rsp+24], rsi
	push	rdi
	sub	rsp, 32					; 00000020H
	mov	rsi, r9
	mov	edi, edx
	mov	rbp, rcx
; Line 123
	call	QWORD PTR __imp_?qt_metacall@QWidget@@UEAAHW4Call@QMetaObject@@HPEAPEAX@Z
	mov	ebx, eax
; Line 124
	test	eax, eax
	js	SHORT $LN1@qt_metacal
; Line 126
	test	edi, edi
	jne	SHORT $LN3@qt_metacal
; Line 127
	cmp	eax, 2
	jge	SHORT $LN7@qt_metacal
; Line 128
	mov	r9, rsi
	mov	r8d, eax
	xor	edx, edx
	mov	rcx, rbp
	call	?qt_static_metacall@QtNewWindow@@CAXPEAVQObject@@W4Call@QMetaObject@@HPEAPEAX@Z ; QtNewWindow::qt_static_metacall
; Line 129
	jmp	SHORT $LN7@qt_metacal
$LN3@qt_metacal:
; Line 130
	cmp	edi, 12
	jne	SHORT $LN6@qt_metacal
; Line 131
	cmp	eax, 2
	jge	SHORT $LN7@qt_metacal
; Line 132
	mov	rax, QWORD PTR [rsi]
	mov	DWORD PTR [rax], -1
$LN7@qt_metacal:
; Line 133
	sub	ebx, 2
$LN6@qt_metacal:
; Line 135
	mov	eax, ebx
$LN1@qt_metacal:
; Line 136
	mov	rbx, QWORD PTR [rsp+48]
	mov	rbp, QWORD PTR [rsp+56]
	mov	rsi, QWORD PTR [rsp+64]
	add	rsp, 32					; 00000020H
	pop	rdi
	ret	0
?qt_metacall@QtNewWindow@@UEAAHW4Call@QMetaObject@@HPEAPEAX@Z ENDP ; QtNewWindow::qt_metacall
_TEXT	ENDS
; Function compile flags: /Ogtpy
;	COMDAT ?qt_metacast@QtNewWindow@@UEAAPEAXPEBD@Z
_TEXT	SEGMENT
this$ = 8
_clname$ = 16
?qt_metacast@QtNewWindow@@UEAAPEAXPEBD@Z PROC		; QtNewWindow::qt_metacast, COMDAT
; File e:\workspace\file_save_haizeiwang10086\qtsearchwindow\qtsearchwindow\generatedfiles\release\moc_qtnewwindow.cpp
; Line 114
	mov	r9, rdx
	mov	r10, rcx
; Line 115
	test	rdx, rdx
	jne	SHORT $LN2@qt_metacas
	xor	eax, eax
; Line 119
	ret	0
$LN2@qt_metacas:
; Line 116
	lea	r8, OFFSET FLAT:?qt_meta_stringdata_QtNewWindow@@3Uqt_meta_stringdata_QtNewWindow_t@@B+168
	mov	rax, rdx
	sub	r8, rdx
	npad	5
$LL5@qt_metacas:
	movzx	edx, BYTE PTR [rax]
	movzx	ecx, BYTE PTR [rax+r8]
	sub	edx, ecx
	jne	SHORT $LN6@qt_metacas
	inc	rax
	test	ecx, ecx
	jne	SHORT $LL5@qt_metacas
$LN6@qt_metacas:
	test	edx, edx
	jne	SHORT $LN3@qt_metacas
; Line 117
	mov	rax, r10
; Line 119
	ret	0
$LN3@qt_metacas:
; Line 118
	mov	rdx, r9
	mov	rcx, r10
	rex_jmp	QWORD PTR __imp_?qt_metacast@QWidget@@UEAAPEAXPEBD@Z
?qt_metacast@QtNewWindow@@UEAAPEAXPEBD@Z ENDP		; QtNewWindow::qt_metacast
_TEXT	ENDS
; Function compile flags: /Ogtpy
;	COMDAT ?metaObject@QtNewWindow@@UEBAPEBUQMetaObject@@XZ
_TEXT	SEGMENT
this$ = 8
?metaObject@QtNewWindow@@UEBAPEBUQMetaObject@@XZ PROC	; QtNewWindow::metaObject, COMDAT
; File e:\workspace\file_save_haizeiwang10086\qtsearchwindow\qtsearchwindow\generatedfiles\release\moc_qtnewwindow.cpp
; Line 110
	mov	rcx, QWORD PTR [rcx+8]
	cmp	QWORD PTR [rcx+40], 0
	je	SHORT $LN3@metaObject
	rex_jmp	QWORD PTR __imp_?dynamicMetaObject@QObjectData@@QEBAPEAUQMetaObject@@XZ
$LN3@metaObject:
	lea	rax, OFFSET FLAT:?staticMetaObject@QtNewWindow@@2UQMetaObject@@B ; QtNewWindow::staticMetaObject
; Line 111
	ret	0
?metaObject@QtNewWindow@@UEBAPEBUQMetaObject@@XZ ENDP	; QtNewWindow::metaObject
_TEXT	ENDS
; Function compile flags: /Ogtpy
;	COMDAT ??C?$QScopedPointer@VQObjectData@@U?$QScopedPointerDeleter@VQObjectData@@@@@@QEBAPEAVQObjectData@@XZ
_TEXT	SEGMENT
this$ = 8
??C?$QScopedPointer@VQObjectData@@U?$QScopedPointerDeleter@VQObjectData@@@@@@QEBAPEAVQObjectData@@XZ PROC ; QScopedPointer<QObjectData,QScopedPointerDeleter<QObjectData> >::operator->, COMDAT
; File d:\qt\5.9.2\msvc2015_64\include\qtcore\qscopedpointer.h
; Line 118
	mov	rax, QWORD PTR [rcx]
; Line 119
	ret	0
??C?$QScopedPointer@VQObjectData@@U?$QScopedPointerDeleter@VQObjectData@@@@@@QEBAPEAVQObjectData@@XZ ENDP ; QScopedPointer<QObjectData,QScopedPointerDeleter<QObjectData> >::operator->
_TEXT	ENDS
END
