; Listing generated by Microsoft (R) Optimizing Compiler Version 19.00.23026.0 

include listing.inc

INCLUDELIB MSVCRTD
INCLUDELIB OLDNAMES

CONST	SEGMENT
?qt_meta_stringdata_DataBaseLinkDialog@@3Uqt_meta_stringdata_DataBaseLinkDialog_t@@B DD 0ffffffffH ; qt_meta_stringdata_DataBaseLinkDialog
	DD	012H
	DD	00H
	ORG $+4
	DQ	0000000000000090H
	DD	0ffffffffH
	DD	012H
	DD	00H
	ORG $+4
	DQ	000000000000008bH
	DD	0ffffffffH
	DD	00H
	DD	00H
	ORG $+4
	DQ	0000000000000086H
	DD	0ffffffffH
	DD	06H
	DD	00H
	ORG $+4
	DQ	000000000000006fH
	DD	0ffffffffH
	DD	08H
	DD	00H
	ORG $+4
	DQ	000000000000005eH
	DD	0ffffffffH
	DD	08H
	DD	00H
	ORG $+4
	DQ	000000000000004fH
	DB	'DataBaseLinkDialog', 00H, 'dataBaseLinkSignal', 00H, 00H
	DB	'dbName', 00H, 'userName', 00H, 'password', 00H
?qt_meta_data_DataBaseLinkDialog@@3QBIB DD 07H		; qt_meta_data_DataBaseLinkDialog
	DD	00H
	DD	00H
	DD	00H
	DD	01H
	DD	0eH
	DD	00H
	DD	00H
	DD	00H
	DD	00H
	DD	00H
	DD	00H
	DD	00H
	DD	01H
	DD	01H
	DD	03H
	DD	013H
	DD	02H
	DD	06H
	DD	02bH
	DD	0aH
	DD	0aH
	DD	0aH
	DD	03H
	DD	04H
	DD	05H
	DD	00H
	ORG $+4
$SG137303 DB	'D:\QT\5.9.2\msvc2015_64\include\QtCore/qmetatype.h', 00H
	ORG $+13
$SG137304 DB	'qRegisterNormalizedMetaType was called with a not normal'
	DB	'ized type name, please call qRegisterMetaType instead.', 00H
	ORG $+1
$SG137305 DB	'qRegisterNormalizedMetaType', 00H
	ORG $+4
$SG135446 DB	'D:\QT\5.9.2\msvc2015_64\include\QtCore/qmetatype.h', 00H
	ORG $+13
$SG135447 DB	'qRegisterNormalizedMetaType was called with a not normal'
	DB	'ized type name, please call qRegisterMetaType instead.', 00H
	ORG $+1
$SG135448 DB	'qRegisterNormalizedMetaType', 00H
	ORG $+4
$SG137620 DB	'D:\QT\5.9.2\msvc2015_64\include\QtCore/qmetatype.h', 00H
	ORG $+13
$SG137621 DB	'qRegisterNormalizedMetaType was called with a not normal'
	DB	'ized type name, please call qRegisterMetaType instead.', 00H
	ORG $+1
$SG137622 DB	'qRegisterNormalizedMetaType', 00H
	ORG $+4
$SG135763 DB	'D:\QT\5.9.2\msvc2015_64\include\QtCore/qmetatype.h', 00H
	ORG $+13
$SG135764 DB	'qRegisterNormalizedMetaType was called with a not normal'
	DB	'ized type name, please call qRegisterMetaType instead.', 00H
	ORG $+1
$SG135765 DB	'qRegisterNormalizedMetaType', 00H
	ORG $+4
$SG138963 DB	'D:\QT\5.9.2\msvc2015_64\include\QtCore/qmetatype.h', 00H
	ORG $+13
$SG138964 DB	'qRegisterNormalizedMetaType was called with a not normal'
	DB	'ized type name, please call qRegisterMetaType instead.', 00H
	ORG $+1
$SG138965 DB	'qRegisterNormalizedMetaType', 00H
	ORG $+4
$SG136986 DB	'D:\QT\5.9.2\msvc2015_64\include\QtCore/qmetatype.h', 00H
	ORG $+13
$SG136987 DB	'qRegisterNormalizedMetaType was called with a not normal'
	DB	'ized type name, please call qRegisterMetaType instead.', 00H
	ORG $+1
$SG136988 DB	'qRegisterNormalizedMetaType', 00H
	ORG $+4
$SG138033 DB	'D:\QT\5.9.2\msvc2015_64\include\QtCore/qmetatype.h', 00H
	ORG $+13
$SG138034 DB	'qRegisterNormalizedMetaType was called with a not normal'
	DB	'ized type name, please call qRegisterMetaType instead.', 00H
	ORG $+1
$SG138035 DB	'qRegisterNormalizedMetaType', 00H
	ORG $+4
$SG136080 DB	'D:\QT\5.9.2\msvc2015_64\include\QtCore/qmetatype.h', 00H
	ORG $+13
$SG136081 DB	'qRegisterNormalizedMetaType was called with a not normal'
	DB	'ized type name, please call qRegisterMetaType instead.', 00H
	ORG $+1
$SG136082 DB	'qRegisterNormalizedMetaType', 00H
CONST	ENDS
PUBLIC	?__empty_global_delete@@YAXPEAX@Z		; __empty_global_delete
PUBLIC	?__empty_global_delete@@YAXPEAX_K@Z		; __empty_global_delete
PUBLIC	??C?$QScopedPointer@VQObjectData@@U?$QScopedPointerDeleter@VQObjectData@@@@@@QEBAPEAVQObjectData@@XZ ; QScopedPointer<QObjectData,QScopedPointerDeleter<QObjectData> >::operator->
PUBLIC	?metaObject@DataBaseLinkDialog@@UEBAPEBUQMetaObject@@XZ ; DataBaseLinkDialog::metaObject
PUBLIC	?qt_metacast@DataBaseLinkDialog@@UEAAPEAXPEBD@Z	; DataBaseLinkDialog::qt_metacast
PUBLIC	?qt_metacall@DataBaseLinkDialog@@UEAAHW4Call@QMetaObject@@HPEAPEAX@Z ; DataBaseLinkDialog::qt_metacall
PUBLIC	?qt_static_metacall@DataBaseLinkDialog@@CAXPEAVQObject@@W4Call@QMetaObject@@HPEAPEAX@Z ; DataBaseLinkDialog::qt_static_metacall
PUBLIC	?dataBaseLinkSignal@DataBaseLinkDialog@@QEAAXVQString@@00@Z ; DataBaseLinkDialog::dataBaseLinkSignal
PUBLIC	?staticMetaObject@DataBaseLinkDialog@@2UQMetaObject@@B ; DataBaseLinkDialog::staticMetaObject
EXTRN	strcmp:PROC
EXTRN	__imp_??0QString@@QEAA@AEBV0@@Z:PROC
EXTRN	__imp_??1QString@@QEAA@XZ:PROC
EXTRN	__imp_?activate@QMetaObject@@SAXPEAVQObject@@PEBU1@HPEAPEAX@Z:PROC
EXTRN	__imp_?dynamicMetaObject@QObjectData@@QEBAPEAUQMetaObject@@XZ:PROC
EXTRN	__imp_?qt_metacast@QDialog@@UEAAPEAXPEBD@Z:PROC
EXTRN	__imp_?qt_metacall@QDialog@@UEAAHW4Call@QMetaObject@@HPEAPEAX@Z:PROC
EXTRN	__GSHandlerCheck_EH:PROC
EXTRN	__security_check_cookie:PROC
EXTRN	__imp_?staticMetaObject@QDialog@@2UQMetaObject@@B:BYTE
EXTRN	__security_cookie:QWORD
_BSS	SEGMENT
?staticMetaObject@DataBaseLinkDialog@@2UQMetaObject@@B DB 030H DUP (?) ; DataBaseLinkDialog::staticMetaObject
_BSS	ENDS
pdata	SEGMENT
$pdata$?metaObject@DataBaseLinkDialog@@UEBAPEBUQMetaObject@@XZ DD imagerel $LN5
	DD	imagerel $LN5+88
	DD	imagerel $unwind$?metaObject@DataBaseLinkDialog@@UEBAPEBUQMetaObject@@XZ
$pdata$?qt_metacast@DataBaseLinkDialog@@UEAAPEAXPEBD@Z DD imagerel $LN5
	DD	imagerel $LN5+75
	DD	imagerel $unwind$?qt_metacast@DataBaseLinkDialog@@UEAAPEAXPEBD@Z
$pdata$?qt_metacall@DataBaseLinkDialog@@UEAAHW4Call@QMetaObject@@HPEAPEAX@Z DD imagerel $LN9
	DD	imagerel $LN9+172
	DD	imagerel $unwind$?qt_metacall@DataBaseLinkDialog@@UEAAHW4Call@QMetaObject@@HPEAPEAX@Z
$pdata$?qt_static_metacall@DataBaseLinkDialog@@CAXPEAVQObject@@W4Call@QMetaObject@@HPEAPEAX@Z DD imagerel $LN17
	DD	imagerel $LN17+426
	DD	imagerel $unwind$?qt_static_metacall@DataBaseLinkDialog@@CAXPEAVQObject@@W4Call@QMetaObject@@HPEAPEAX@Z
$pdata$?dataBaseLinkSignal@DataBaseLinkDialog@@QEAAXVQString@@00@Z DD imagerel $LN6
	DD	imagerel $LN6+167
	DD	imagerel $unwind$?dataBaseLinkSignal@DataBaseLinkDialog@@QEAAXVQString@@00@Z
pdata	ENDS
pdata	SEGMENT
$pdata$?dtor$0@?0??dataBaseLinkSignal@DataBaseLinkDialog@@QEAAXVQString@@00@Z@4HA DD imagerel ?dtor$0@?0??dataBaseLinkSignal@DataBaseLinkDialog@@QEAAXVQString@@00@Z@4HA
	DD	imagerel ?dtor$0@?0??dataBaseLinkSignal@DataBaseLinkDialog@@QEAAXVQString@@00@Z@4HA+25
	DD	imagerel $unwind$?dtor$0@?0??dataBaseLinkSignal@DataBaseLinkDialog@@QEAAXVQString@@00@Z@4HA
$pdata$?dtor$1@?0??dataBaseLinkSignal@DataBaseLinkDialog@@QEAAXVQString@@00@Z@4HA DD imagerel ?dtor$1@?0??dataBaseLinkSignal@DataBaseLinkDialog@@QEAAXVQString@@00@Z@4HA
	DD	imagerel ?dtor$1@?0??dataBaseLinkSignal@DataBaseLinkDialog@@QEAAXVQString@@00@Z@4HA+25
	DD	imagerel $unwind$?dtor$1@?0??dataBaseLinkSignal@DataBaseLinkDialog@@QEAAXVQString@@00@Z@4HA
$pdata$?dtor$2@?0??dataBaseLinkSignal@DataBaseLinkDialog@@QEAAXVQString@@00@Z@4HA DD imagerel ?dtor$2@?0??dataBaseLinkSignal@DataBaseLinkDialog@@QEAAXVQString@@00@Z@4HA
	DD	imagerel ?dtor$2@?0??dataBaseLinkSignal@DataBaseLinkDialog@@QEAAXVQString@@00@Z@4HA+25
	DD	imagerel $unwind$?dtor$2@?0??dataBaseLinkSignal@DataBaseLinkDialog@@QEAAXVQString@@00@Z@4HA
pdata	ENDS
CRT$XCU	SEGMENT
??staticMetaObject$initializer$@DataBaseLinkDialog@@2P6AXXZEA@@3P6AXXZEA DQ FLAT:??__E?staticMetaObject@DataBaseLinkDialog@@2UQMetaObject@@B@@YAXXZ ; ??staticMetaObject$initializer$@DataBaseLinkDialog@@2P6AXXZEA@@3P6AXXZEA
CRT$XCU	ENDS
CONST	SEGMENT
	ORG $+4
$cppxdata$?dataBaseLinkSignal@DataBaseLinkDialog@@QEAAXVQString@@00@Z DD 019930522H
	DD	03H
	DD	imagerel $stateUnwindMap$?dataBaseLinkSignal@DataBaseLinkDialog@@QEAAXVQString@@00@Z
	DD	00H
	DD	00H
	DD	05H
	DD	imagerel $ip2state$?dataBaseLinkSignal@DataBaseLinkDialog@@QEAAXVQString@@00@Z
	DD	020H
	DD	00H
	DD	01H
CONST	ENDS
xdata	SEGMENT
$unwind$?metaObject@DataBaseLinkDialog@@UEBAPEBUQMetaObject@@XZ DD 010901H
	DD	06209H
$unwind$?qt_metacast@DataBaseLinkDialog@@UEAAPEAXPEBD@Z DD 010e01H
	DD	0420eH
$unwind$?qt_metacall@DataBaseLinkDialog@@UEAAHW4Call@QMetaObject@@HPEAPEAX@Z DD 011701H
	DD	04217H
$unwind$?qt_static_metacall@DataBaseLinkDialog@@CAXPEAVQObject@@W4Call@QMetaObject@@HPEAPEAX@Z DD 021a01H
	DD	015011aH
$unwind$?dataBaseLinkSignal@DataBaseLinkDialog@@QEAAXVQString@@00@Z DD 013019H
	DD	0a218H
	DD	imagerel __GSHandlerCheck_EH
	DD	imagerel $cppxdata$?dataBaseLinkSignal@DataBaseLinkDialog@@QEAAXVQString@@00@Z
	DD	04aH
$stateUnwindMap$?dataBaseLinkSignal@DataBaseLinkDialog@@QEAAXVQString@@00@Z DD 0ffffffffH
	DD	imagerel ?dtor$0@?0??dataBaseLinkSignal@DataBaseLinkDialog@@QEAAXVQString@@00@Z@4HA
	DD	00H
	DD	imagerel ?dtor$1@?0??dataBaseLinkSignal@DataBaseLinkDialog@@QEAAXVQString@@00@Z@4HA
	DD	01H
	DD	imagerel ?dtor$2@?0??dataBaseLinkSignal@DataBaseLinkDialog@@QEAAXVQString@@00@Z@4HA
$ip2state$?dataBaseLinkSignal@DataBaseLinkDialog@@QEAAXVQString@@00@Z DD imagerel ?dataBaseLinkSignal@DataBaseLinkDialog@@QEAAXVQString@@00@Z
	DD	0ffffffffH
	DD	imagerel ?dataBaseLinkSignal@DataBaseLinkDialog@@QEAAXVQString@@00@Z+48
	DD	02H
	DD	imagerel ?dataBaseLinkSignal@DataBaseLinkDialog@@QEAAXVQString@@00@Z+114
	DD	01H
	DD	imagerel ?dataBaseLinkSignal@DataBaseLinkDialog@@QEAAXVQString@@00@Z+126
	DD	00H
	DD	imagerel ?dataBaseLinkSignal@DataBaseLinkDialog@@QEAAXVQString@@00@Z+138
	DD	0ffffffffH
$unwind$?dtor$0@?0??dataBaseLinkSignal@DataBaseLinkDialog@@QEAAXVQString@@00@Z@4HA DD 020601H
	DD	050023206H
$unwind$?dtor$1@?0??dataBaseLinkSignal@DataBaseLinkDialog@@QEAAXVQString@@00@Z@4HA DD 020601H
	DD	050023206H
$unwind$?dtor$2@?0??dataBaseLinkSignal@DataBaseLinkDialog@@QEAAXVQString@@00@Z@4HA DD 020601H
	DD	050023206H
xdata	ENDS
; Function compile flags: /Odtp
;	COMDAT ??__E?staticMetaObject@DataBaseLinkDialog@@2UQMetaObject@@B@@YAXXZ
text$di	SEGMENT
??__E?staticMetaObject@DataBaseLinkDialog@@2UQMetaObject@@B@@YAXXZ PROC ; `dynamic initializer for 'DataBaseLinkDialog::staticMetaObject'', COMDAT
; File f:\workspace\file_save_haizeiwang10086\docmanagement\docmanagement\generatedfiles\debug\moc_databaselinkdialog.cpp
; Line 92
	mov	rax, QWORD PTR __imp_?staticMetaObject@QDialog@@2UQMetaObject@@B
	mov	QWORD PTR ?staticMetaObject@DataBaseLinkDialog@@2UQMetaObject@@B, rax
	lea	rax, OFFSET FLAT:?qt_meta_stringdata_DataBaseLinkDialog@@3Uqt_meta_stringdata_DataBaseLinkDialog_t@@B
	mov	QWORD PTR ?staticMetaObject@DataBaseLinkDialog@@2UQMetaObject@@B+8, rax
; Line 93
	lea	rax, OFFSET FLAT:?qt_meta_data_DataBaseLinkDialog@@3QBIB
	mov	QWORD PTR ?staticMetaObject@DataBaseLinkDialog@@2UQMetaObject@@B+16, rax
	lea	rax, OFFSET FLAT:?qt_static_metacall@DataBaseLinkDialog@@CAXPEAVQObject@@W4Call@QMetaObject@@HPEAPEAX@Z ; DataBaseLinkDialog::qt_static_metacall
	mov	QWORD PTR ?staticMetaObject@DataBaseLinkDialog@@2UQMetaObject@@B+24, rax
	mov	QWORD PTR ?staticMetaObject@DataBaseLinkDialog@@2UQMetaObject@@B+32, 0
	mov	QWORD PTR ?staticMetaObject@DataBaseLinkDialog@@2UQMetaObject@@B+40, 0
	ret	0
??__E?staticMetaObject@DataBaseLinkDialog@@2UQMetaObject@@B@@YAXXZ ENDP ; `dynamic initializer for 'DataBaseLinkDialog::staticMetaObject''
text$di	ENDS
; Function compile flags: /Odtp
_TEXT	SEGMENT
$T1 = 32
_a$ = 40
__$ArrayPad$ = 72
this$ = 96
_t1$ = 104
_t2$ = 112
_t3$ = 120
?dataBaseLinkSignal@DataBaseLinkDialog@@QEAAXVQString@@00@Z PROC ; DataBaseLinkDialog::dataBaseLinkSignal
; File f:\workspace\file_save_haizeiwang10086\docmanagement\docmanagement\generatedfiles\debug\moc_databaselinkdialog.cpp
; Line 129
$LN6:
	mov	QWORD PTR [rsp+32], r9
	mov	QWORD PTR [rsp+24], r8
	mov	QWORD PTR [rsp+16], rdx
	mov	QWORD PTR [rsp+8], rcx
	sub	rsp, 88					; 00000058H
	mov	QWORD PTR $T1[rsp], -2
	mov	rax, QWORD PTR __security_cookie
	xor	rax, rsp
	mov	QWORD PTR __$ArrayPad$[rsp], rax
; Line 130
	mov	QWORD PTR _a$[rsp], 0
	mov	rax, QWORD PTR _t1$[rsp]
	mov	QWORD PTR _a$[rsp+8], rax
	mov	rax, QWORD PTR _t2$[rsp]
	mov	QWORD PTR _a$[rsp+16], rax
	mov	rax, QWORD PTR _t3$[rsp]
	mov	QWORD PTR _a$[rsp+24], rax
; Line 131
	lea	r9, QWORD PTR _a$[rsp]
	xor	r8d, r8d
	lea	rdx, OFFSET FLAT:?staticMetaObject@DataBaseLinkDialog@@2UQMetaObject@@B ; DataBaseLinkDialog::staticMetaObject
	mov	rcx, QWORD PTR this$[rsp]
	call	QWORD PTR __imp_?activate@QMetaObject@@SAXPEAVQObject@@PEBU1@HPEAPEAX@Z
	npad	1
; Line 132
	mov	rcx, QWORD PTR _t1$[rsp]
	call	QWORD PTR __imp_??1QString@@QEAA@XZ
	npad	1
	mov	rcx, QWORD PTR _t2$[rsp]
	call	QWORD PTR __imp_??1QString@@QEAA@XZ
	npad	1
	mov	rcx, QWORD PTR _t3$[rsp]
	call	QWORD PTR __imp_??1QString@@QEAA@XZ
	mov	rcx, QWORD PTR __$ArrayPad$[rsp]
	xor	rcx, rsp
	call	__security_check_cookie
	add	rsp, 88					; 00000058H
	ret	0
?dataBaseLinkSignal@DataBaseLinkDialog@@QEAAXVQString@@00@Z ENDP ; DataBaseLinkDialog::dataBaseLinkSignal
_TEXT	ENDS
; Function compile flags: /Odtp
text$x	SEGMENT
$T1 = 32
_a$ = 40
__$ArrayPad$ = 72
this$ = 96
_t1$ = 104
_t2$ = 112
_t3$ = 120
?dtor$0@?0??dataBaseLinkSignal@DataBaseLinkDialog@@QEAAXVQString@@00@Z@4HA PROC ; `DataBaseLinkDialog::dataBaseLinkSignal'::`1'::dtor$0
	push	rbp
	sub	rsp, 32					; 00000020H
	mov	rbp, rdx
	mov	rcx, QWORD PTR _t3$[rbp]
	call	QWORD PTR __imp_??1QString@@QEAA@XZ
	add	rsp, 32					; 00000020H
	pop	rbp
	ret	0
?dtor$0@?0??dataBaseLinkSignal@DataBaseLinkDialog@@QEAAXVQString@@00@Z@4HA ENDP ; `DataBaseLinkDialog::dataBaseLinkSignal'::`1'::dtor$0
text$x	ENDS
; Function compile flags: /Odtp
text$x	SEGMENT
$T1 = 32
_a$ = 40
__$ArrayPad$ = 72
this$ = 96
_t1$ = 104
_t2$ = 112
_t3$ = 120
?dtor$1@?0??dataBaseLinkSignal@DataBaseLinkDialog@@QEAAXVQString@@00@Z@4HA PROC ; `DataBaseLinkDialog::dataBaseLinkSignal'::`1'::dtor$1
	push	rbp
	sub	rsp, 32					; 00000020H
	mov	rbp, rdx
	mov	rcx, QWORD PTR _t2$[rbp]
	call	QWORD PTR __imp_??1QString@@QEAA@XZ
	add	rsp, 32					; 00000020H
	pop	rbp
	ret	0
?dtor$1@?0??dataBaseLinkSignal@DataBaseLinkDialog@@QEAAXVQString@@00@Z@4HA ENDP ; `DataBaseLinkDialog::dataBaseLinkSignal'::`1'::dtor$1
text$x	ENDS
; Function compile flags: /Odtp
text$x	SEGMENT
$T1 = 32
_a$ = 40
__$ArrayPad$ = 72
this$ = 96
_t1$ = 104
_t2$ = 112
_t3$ = 120
?dtor$2@?0??dataBaseLinkSignal@DataBaseLinkDialog@@QEAAXVQString@@00@Z@4HA PROC ; `DataBaseLinkDialog::dataBaseLinkSignal'::`1'::dtor$2
	push	rbp
	sub	rsp, 32					; 00000020H
	mov	rbp, rdx
	mov	rcx, QWORD PTR _t1$[rbp]
	call	QWORD PTR __imp_??1QString@@QEAA@XZ
	add	rsp, 32					; 00000020H
	pop	rbp
	ret	0
?dtor$2@?0??dataBaseLinkSignal@DataBaseLinkDialog@@QEAAXVQString@@00@Z@4HA ENDP ; `DataBaseLinkDialog::dataBaseLinkSignal'::`1'::dtor$2
text$x	ENDS
; Function compile flags: /Odtp
_TEXT	SEGMENT
tv146 = 32
tv69 = 36
func$1 = 40
$T2 = 48
$T3 = 56
$T4 = 64
tv149 = 72
tv151 = 80
tv153 = 88
_t$5 = 96
result$6 = 104
$T7 = 112
$T8 = 128
$T9 = 136
$T10 = 144
_o$ = 176
_c$ = 184
_id$ = 192
_a$ = 200
?qt_static_metacall@DataBaseLinkDialog@@CAXPEAVQObject@@W4Call@QMetaObject@@HPEAPEAX@Z PROC ; DataBaseLinkDialog::qt_static_metacall
; File f:\workspace\file_save_haizeiwang10086\docmanagement\docmanagement\generatedfiles\debug\moc_databaselinkdialog.cpp
; Line 70
$LN17:
	mov	QWORD PTR [rsp+32], r9
	mov	DWORD PTR [rsp+24], r8d
	mov	DWORD PTR [rsp+16], edx
	mov	QWORD PTR [rsp+8], rcx
	sub	rsp, 168				; 000000a8H
; Line 71
	cmp	DWORD PTR _c$[rsp], 0
	jne	$LN4@qt_static_
; Line 72
	mov	rax, QWORD PTR _o$[rsp]
	mov	QWORD PTR _t$5[rsp], rax
; Line 74
	mov	eax, DWORD PTR _id$[rsp]
	mov	DWORD PTR tv69[rsp], eax
	cmp	DWORD PTR tv69[rsp], 0
	je	SHORT $LN6@qt_static_
	jmp	$LN7@qt_static_
$LN6@qt_static_:
; Line 75
	lea	rax, QWORD PTR $T8[rsp]
	mov	QWORD PTR $T2[rsp], rax
	lea	rax, QWORD PTR $T9[rsp]
	mov	QWORD PTR $T3[rsp], rax
	lea	rax, QWORD PTR $T10[rsp]
	mov	QWORD PTR $T4[rsp], rax
	mov	eax, 8
	imul	rax, rax, 3
	mov	rcx, QWORD PTR _a$[rsp]
	mov	rdx, QWORD PTR [rcx+rax]
	mov	rcx, QWORD PTR $T2[rsp]
	call	QWORD PTR __imp_??0QString@@QEAA@AEBV0@@Z
	mov	QWORD PTR tv149[rsp], rax
	mov	eax, 8
	imul	rax, rax, 2
	mov	rcx, QWORD PTR _a$[rsp]
	mov	rdx, QWORD PTR [rcx+rax]
	mov	rcx, QWORD PTR $T3[rsp]
	call	QWORD PTR __imp_??0QString@@QEAA@AEBV0@@Z
	mov	QWORD PTR tv151[rsp], rax
	mov	eax, 8
	imul	rax, rax, 1
	mov	rcx, QWORD PTR _a$[rsp]
	mov	rdx, QWORD PTR [rcx+rax]
	mov	rcx, QWORD PTR $T4[rsp]
	call	QWORD PTR __imp_??0QString@@QEAA@AEBV0@@Z
	mov	QWORD PTR tv153[rsp], rax
	mov	r9, QWORD PTR tv149[rsp]
	mov	r8, QWORD PTR tv151[rsp]
	mov	rdx, QWORD PTR tv153[rsp]
	mov	rcx, QWORD PTR _t$5[rsp]
	call	?dataBaseLinkSignal@DataBaseLinkDialog@@QEAAXVQString@@00@Z ; DataBaseLinkDialog::dataBaseLinkSignal
$LN7@qt_static_:
; Line 78
	jmp	$LN5@qt_static_
$LN4@qt_static_:
	cmp	DWORD PTR _c$[rsp], 10
	jne	$LN5@qt_static_
; Line 79
	mov	eax, 8
	imul	rax, rax, 0
	mov	rcx, QWORD PTR _a$[rsp]
	mov	rax, QWORD PTR [rcx+rax]
	mov	QWORD PTR result$6[rsp], rax
; Line 80
	mov	eax, 8
	imul	rax, rax, 1
	mov	rcx, QWORD PTR _a$[rsp]
	mov	rax, QWORD PTR [rcx+rax]
	mov	QWORD PTR func$1[rsp], rax
; Line 83
	lea	rax, OFFSET FLAT:?dataBaseLinkSignal@DataBaseLinkDialog@@QEAAXVQString@@00@Z ; DataBaseLinkDialog::dataBaseLinkSignal
	mov	QWORD PTR $T7[rsp], rax
	mov	DWORD PTR $T7[rsp+8], 0
	mov	rax, QWORD PTR func$1[rsp]
	mov	rcx, QWORD PTR $T7[rsp]
	cmp	QWORD PTR [rax], rcx
	jne	SHORT $LN12@qt_static_
	mov	rax, QWORD PTR func$1[rsp]
	cmp	QWORD PTR [rax], 0
	je	SHORT $LN11@qt_static_
	mov	rax, QWORD PTR func$1[rsp]
	mov	ecx, DWORD PTR $T7[rsp+8]
	cmp	DWORD PTR [rax+8], ecx
	jne	SHORT $LN12@qt_static_
$LN11@qt_static_:
	mov	DWORD PTR tv146[rsp], 1
	jmp	SHORT $LN13@qt_static_
$LN12@qt_static_:
	mov	DWORD PTR tv146[rsp], 0
$LN13@qt_static_:
	cmp	DWORD PTR tv146[rsp], 0
	je	SHORT $LN5@qt_static_
; Line 84
	mov	rax, QWORD PTR result$6[rsp]
	mov	DWORD PTR [rax], 0
$LN5@qt_static_:
; Line 89
	add	rsp, 168				; 000000a8H
	ret	0
?qt_static_metacall@DataBaseLinkDialog@@CAXPEAVQObject@@W4Call@QMetaObject@@HPEAPEAX@Z ENDP ; DataBaseLinkDialog::qt_static_metacall
_TEXT	ENDS
; Function compile flags: /Odtp
_TEXT	SEGMENT
this$ = 48
_c$ = 56
_id$ = 64
_a$ = 72
?qt_metacall@DataBaseLinkDialog@@UEAAHW4Call@QMetaObject@@HPEAPEAX@Z PROC ; DataBaseLinkDialog::qt_metacall
; File f:\workspace\file_save_haizeiwang10086\docmanagement\docmanagement\generatedfiles\debug\moc_databaselinkdialog.cpp
; Line 111
$LN9:
	mov	QWORD PTR [rsp+32], r9
	mov	DWORD PTR [rsp+24], r8d
	mov	DWORD PTR [rsp+16], edx
	mov	QWORD PTR [rsp+8], rcx
	sub	rsp, 40					; 00000028H
; Line 112
	mov	r9, QWORD PTR _a$[rsp]
	mov	r8d, DWORD PTR _id$[rsp]
	mov	edx, DWORD PTR _c$[rsp]
	mov	rcx, QWORD PTR this$[rsp]
	call	QWORD PTR __imp_?qt_metacall@QDialog@@UEAAHW4Call@QMetaObject@@HPEAPEAX@Z
	mov	DWORD PTR _id$[rsp], eax
; Line 113
	cmp	DWORD PTR _id$[rsp], 0
	jge	SHORT $LN2@qt_metacal
; Line 114
	mov	eax, DWORD PTR _id$[rsp]
	jmp	SHORT $LN1@qt_metacal
$LN2@qt_metacal:
; Line 115
	cmp	DWORD PTR _c$[rsp], 0
	jne	SHORT $LN3@qt_metacal
; Line 116
	cmp	DWORD PTR _id$[rsp], 1
	jge	SHORT $LN5@qt_metacal
; Line 117
	mov	r9, QWORD PTR _a$[rsp]
	mov	r8d, DWORD PTR _id$[rsp]
	mov	edx, DWORD PTR _c$[rsp]
	mov	rcx, QWORD PTR this$[rsp]
	call	?qt_static_metacall@DataBaseLinkDialog@@CAXPEAVQObject@@W4Call@QMetaObject@@HPEAPEAX@Z ; DataBaseLinkDialog::qt_static_metacall
$LN5@qt_metacal:
; Line 118
	mov	eax, DWORD PTR _id$[rsp]
	dec	eax
	mov	DWORD PTR _id$[rsp], eax
	jmp	SHORT $LN4@qt_metacal
$LN3@qt_metacal:
; Line 119
	cmp	DWORD PTR _c$[rsp], 12
	jne	SHORT $LN6@qt_metacal
; Line 120
	cmp	DWORD PTR _id$[rsp], 1
	jge	SHORT $LN7@qt_metacal
; Line 121
	mov	eax, 8
	imul	rax, rax, 0
	mov	rcx, QWORD PTR _a$[rsp]
	mov	rax, QWORD PTR [rcx+rax]
	mov	DWORD PTR [rax], -1
$LN7@qt_metacal:
; Line 122
	mov	eax, DWORD PTR _id$[rsp]
	dec	eax
	mov	DWORD PTR _id$[rsp], eax
$LN6@qt_metacal:
$LN4@qt_metacal:
; Line 124
	mov	eax, DWORD PTR _id$[rsp]
$LN1@qt_metacal:
; Line 125
	add	rsp, 40					; 00000028H
	ret	0
?qt_metacall@DataBaseLinkDialog@@UEAAHW4Call@QMetaObject@@HPEAPEAX@Z ENDP ; DataBaseLinkDialog::qt_metacall
_TEXT	ENDS
; Function compile flags: /Odtp
_TEXT	SEGMENT
this$ = 48
_clname$ = 56
?qt_metacast@DataBaseLinkDialog@@UEAAPEAXPEBD@Z PROC	; DataBaseLinkDialog::qt_metacast
; File f:\workspace\file_save_haizeiwang10086\docmanagement\docmanagement\generatedfiles\debug\moc_databaselinkdialog.cpp
; Line 103
$LN5:
	mov	QWORD PTR [rsp+16], rdx
	mov	QWORD PTR [rsp+8], rcx
	sub	rsp, 40					; 00000028H
; Line 104
	cmp	QWORD PTR _clname$[rsp], 0
	jne	SHORT $LN2@qt_metacas
	xor	eax, eax
	jmp	SHORT $LN1@qt_metacas
$LN2@qt_metacas:
; Line 105
	lea	rdx, OFFSET FLAT:?qt_meta_stringdata_DataBaseLinkDialog@@3Uqt_meta_stringdata_DataBaseLinkDialog_t@@B+144
	mov	rcx, QWORD PTR _clname$[rsp]
	call	strcmp
	test	eax, eax
	jne	SHORT $LN3@qt_metacas
; Line 106
	mov	rax, QWORD PTR this$[rsp]
	jmp	SHORT $LN1@qt_metacas
$LN3@qt_metacas:
; Line 107
	mov	rdx, QWORD PTR _clname$[rsp]
	mov	rcx, QWORD PTR this$[rsp]
	call	QWORD PTR __imp_?qt_metacast@QDialog@@UEAAPEAXPEBD@Z
$LN1@qt_metacas:
; Line 108
	add	rsp, 40					; 00000028H
	ret	0
?qt_metacast@DataBaseLinkDialog@@UEAAPEAXPEBD@Z ENDP	; DataBaseLinkDialog::qt_metacast
_TEXT	ENDS
; Function compile flags: /Odtp
_TEXT	SEGMENT
tv82 = 32
this$ = 64
?metaObject@DataBaseLinkDialog@@UEBAPEBUQMetaObject@@XZ PROC ; DataBaseLinkDialog::metaObject
; File f:\workspace\file_save_haizeiwang10086\docmanagement\docmanagement\generatedfiles\debug\moc_databaselinkdialog.cpp
; Line 98
$LN5:
	mov	QWORD PTR [rsp+8], rcx
	sub	rsp, 56					; 00000038H
; Line 99
	mov	rax, QWORD PTR this$[rsp]
	add	rax, 8
	mov	rcx, rax
	call	??C?$QScopedPointer@VQObjectData@@U?$QScopedPointerDeleter@VQObjectData@@@@@@QEBAPEAVQObjectData@@XZ ; QScopedPointer<QObjectData,QScopedPointerDeleter<QObjectData> >::operator->
	cmp	QWORD PTR [rax+40], 0
	je	SHORT $LN3@metaObject
	mov	rax, QWORD PTR this$[rsp]
	add	rax, 8
	mov	rcx, rax
	call	??C?$QScopedPointer@VQObjectData@@U?$QScopedPointerDeleter@VQObjectData@@@@@@QEBAPEAVQObjectData@@XZ ; QScopedPointer<QObjectData,QScopedPointerDeleter<QObjectData> >::operator->
	mov	rcx, rax
	call	QWORD PTR __imp_?dynamicMetaObject@QObjectData@@QEBAPEAUQMetaObject@@XZ
	mov	QWORD PTR tv82[rsp], rax
	jmp	SHORT $LN4@metaObject
$LN3@metaObject:
	lea	rax, OFFSET FLAT:?staticMetaObject@DataBaseLinkDialog@@2UQMetaObject@@B ; DataBaseLinkDialog::staticMetaObject
	mov	QWORD PTR tv82[rsp], rax
$LN4@metaObject:
	mov	rax, QWORD PTR tv82[rsp]
; Line 100
	add	rsp, 56					; 00000038H
	ret	0
?metaObject@DataBaseLinkDialog@@UEBAPEBUQMetaObject@@XZ ENDP ; DataBaseLinkDialog::metaObject
_TEXT	ENDS
; Function compile flags: /Odtp
;	COMDAT ??C?$QScopedPointer@VQObjectData@@U?$QScopedPointerDeleter@VQObjectData@@@@@@QEBAPEAVQObjectData@@XZ
_TEXT	SEGMENT
this$ = 8
??C?$QScopedPointer@VQObjectData@@U?$QScopedPointerDeleter@VQObjectData@@@@@@QEBAPEAVQObjectData@@XZ PROC ; QScopedPointer<QObjectData,QScopedPointerDeleter<QObjectData> >::operator->, COMDAT
; File d:\qt\5.9.2\msvc2015_64\include\qtcore\qscopedpointer.h
; Line 117
	mov	QWORD PTR [rsp+8], rcx
; Line 118
	mov	rax, QWORD PTR this$[rsp]
	mov	rax, QWORD PTR [rax]
; Line 119
	ret	0
??C?$QScopedPointer@VQObjectData@@U?$QScopedPointerDeleter@VQObjectData@@@@@@QEBAPEAVQObjectData@@XZ ENDP ; QScopedPointer<QObjectData,QScopedPointerDeleter<QObjectData> >::operator->
_TEXT	ENDS
; Function compile flags: /Odtp
;	COMDAT ?__empty_global_delete@@YAXPEAX_K@Z
_TEXT	SEGMENT
__formal$ = 8
__formal$ = 16
?__empty_global_delete@@YAXPEAX_K@Z PROC		; __empty_global_delete, COMDAT
; File f:\workspace\file_save_haizeiwang10086\docmanagement\docmanagement\generatedfiles\debug\moc_databaselinkdialog.cpp
; Line 135
	mov	QWORD PTR [rsp+16], rdx
	mov	QWORD PTR [rsp+8], rcx
	ret	0
?__empty_global_delete@@YAXPEAX_K@Z ENDP		; __empty_global_delete
_TEXT	ENDS
; Function compile flags: /Odtp
;	COMDAT ?__empty_global_delete@@YAXPEAX@Z
_TEXT	SEGMENT
__formal$ = 8
?__empty_global_delete@@YAXPEAX@Z PROC			; __empty_global_delete, COMDAT
; File f:\workspace\file_save_haizeiwang10086\docmanagement\docmanagement\generatedfiles\debug\moc_databaselinkdialog.cpp
; Line 135
	mov	QWORD PTR [rsp+8], rcx
	ret	0
?__empty_global_delete@@YAXPEAX@Z ENDP			; __empty_global_delete
_TEXT	ENDS
END
